target datalayout = "e-m:e-p270:32:32-p271:32:32-p272:64:64-i64:64-i128:128-f80:128-n8:16:32:64-S128"
target triple = "x86_64-unknown-linux-gnu"

%"struct.OpenImageIO_v2_6_0::JpgInput::my_error_mgr" = type { %struct.jpeg_error_mgr, [1 x %struct.__jmp_buf_tag], ptr }
%struct.jpeg_error_mgr = type { ptr, ptr, ptr, ptr, ptr, i32, %union.anon.16, i32, i64, ptr, i32, ptr, i32, i32 }
%union.anon.16 = type { [8 x i32], [48 x i8] }
%struct.__jmp_buf_tag = type { [8 x i64], i32, %struct.__sigset_t }
%struct.__sigset_t = type { [16 x i64] }
%struct.jpeg_common_struct = type { ptr, ptr, ptr, ptr, i32, i32 }

; Function Attrs: mustprogress uwtable
define internal void @_ZN18OpenImageIO_v2_6_0L13my_error_exitEP18jpeg_common_struct(ptr noundef %cinfo) #6 {
entry:
  %cinfo.addr = alloca ptr, align 8
  %myerr = alloca ptr, align 8
  store ptr %cinfo, ptr %cinfo.addr, align 8
  %0 = load ptr, ptr %cinfo.addr, align 8
  %err = getelementptr inbounds %struct.jpeg_common_struct, ptr %0, i32 0, i32 0
  %1 = load ptr, ptr %err, align 8
  store ptr %1, ptr %myerr, align 8
  %2 = load ptr, ptr %myerr, align 8
  %jpginput = getelementptr inbounds %"struct.OpenImageIO_v2_6_0::JpgInput::my_error_mgr", ptr %2, i32 0, i32 2
  %3 = load ptr, ptr %jpginput, align 8
  %4 = load ptr, ptr %myerr, align 8
  call void @_ZN18OpenImageIO_v2_6_08JpgInput9jpegerrorEPNS0_12my_error_mgrEb(ptr noundef nonnull align 8 dereferenceable(1296) %3, ptr noundef %4, i1 noundef zeroext true)
  %5 = load ptr, ptr %myerr, align 8
  %setjmp_buffer = getelementptr inbounds %"struct.OpenImageIO_v2_6_0::JpgInput::my_error_mgr", ptr %5, i32 0, i32 1
  %arraydecay = getelementptr inbounds [1 x %struct.__jmp_buf_tag], ptr %setjmp_buffer, i64 0, i64 0
  call void @longjmp(ptr noundef %arraydecay, i32 noundef 1) #20
  unreachable
}