; Function Attrs: mustprogress noreturn uwtable
define internal void @_ZN18OpenImageIO_v2_6_0L13my_error_exitEP18jpeg_common_struct(ptr nocapture noundef readonly %cinfo) #9 {
entry:
  %0 = load ptr, ptr %cinfo, align 8
  %jpginput = getelementptr inbounds i8, ptr %0, i64 368
  %1 = load ptr, ptr %jpginput, align 8
  tail call void @_ZN18OpenImageIO_v2_6_08JpgInput9jpegerrorEPNS0_12my_error_mgrEb(ptr noundef nonnull align 8 dereferenceable(1296) %1, ptr poison, i1 noundef zeroext true)
  %setjmp_buffer = getelementptr inbounds i8, ptr %0, i64 168
  tail call void @longjmp(ptr noundef nonnull %setjmp_buffer, i32 noundef 1) #31
  unreachable
}